target datalayout = "e-m:e-p270:32:32-p271:32:32-p272:64:64-i64:64-i128:128-f80:128-n8:16:32:64-S128"
target triple = "x86_64-pc-linux-gnu"

%"struct.Yosys::RTLIL::Const" = type { i16, i8, %union.anon }
%union.anon = type { %"class.std::__cxx11::basic_string" }
%"class.std::__cxx11::basic_string" = type { %"struct.std::__cxx11::basic_string<char>::_Alloc_hider", i64, %union.anon.90 }
%"struct.std::__cxx11::basic_string<char>::_Alloc_hider" = type { ptr }
%union.anon.90 = type { i64, [8 x i8] }
%"struct.std::_Rb_tree_header" = type { %"struct.std::_Rb_tree_node_base", i64 }
%"struct.std::_Rb_tree_node_base" = type { i32, ptr, ptr, ptr }
%"class.Yosys::MemContents" = type { i32, i32, %"struct.Yosys::RTLIL::Const", %"class.std::map.232" }
%"class.std::map.232" = type { %"class.std::_Rb_tree.233" }
%"class.std::_Rb_tree.233" = type { %"struct.std::_Rb_tree<unsigned int, std::pair<const unsigned int, Yosys::RTLIL::Const>, std::_Select1st<std::pair<const unsigned int, Yosys::RTLIL::Const>>, std::less<unsigned int>>::_Rb_tree_impl" }
%"struct.std::_Rb_tree<unsigned int, std::pair<const unsigned int, Yosys::RTLIL::Const>, std::_Select1st<std::pair<const unsigned int, Yosys::RTLIL::Const>>, std::less<unsigned int>>::_Rb_tree_impl" = type { [8 x i8], %"struct.std::_Rb_tree_header" }
%"struct.std::_Rb_tree_iterator.241" = type { ptr }
%"struct.std::pair.239" = type { i32, %"struct.Yosys::RTLIL::Const" }
%"struct.std::_Rb_tree_node.350" = type { %"struct.std::_Rb_tree_node_base", %"struct.__gnu_cxx::__aligned_membuf.351" }
%"struct.__gnu_cxx::__aligned_membuf.351" = type { [48 x i8] }

; Function Attrs: mustprogress nounwind uwtable
define linkonce_odr noundef ptr @_ZN9__gnu_cxx16__aligned_membufISt4pairIKjN5Yosys5RTLIL5ConstEEE7_M_addrEv(ptr noundef nonnull align 8 dereferenceable(48) %0) #8 comdat align 2 {
  %2 = alloca ptr, align 8
  store ptr %0, ptr %2, align 8, !tbaa !1123
  %3 = load ptr, ptr %2, align 8
  %4 = getelementptr inbounds nuw %"struct.__gnu_cxx::__aligned_membuf.351", ptr %3, i32 0, i32 0
  ret ptr %4
}

; Function Attrs: mustprogress nounwind uwtable
define linkonce_odr noundef ptr @_ZN9__gnu_cxx16__aligned_membufISt4pairIKjN5Yosys5RTLIL5ConstEEE6_M_ptrEv(ptr noundef nonnull align 8 dereferenceable(48) %0) #8 comdat align 2 {
  %2 = alloca ptr, align 8
  store ptr %0, ptr %2, align 8, !tbaa !1123
  %3 = load ptr, ptr %2, align 8
  %4 = call noundef ptr @_ZN9__gnu_cxx16__aligned_membufISt4pairIKjN5Yosys5RTLIL5ConstEEE7_M_addrEv(ptr noundef nonnull align 8 dereferenceable(48) %3) #3
  ret ptr %4
}

; Function Attrs: mustprogress nounwind uwtable
define linkonce_odr noundef ptr @_ZNSt13_Rb_tree_nodeISt4pairIKjN5Yosys5RTLIL5ConstEEE9_M_valptrEv(ptr noundef nonnull align 8 dereferenceable(80) %0) #8 comdat align 2 {
  %2 = alloca ptr, align 8
  store ptr %0, ptr %2, align 8, !tbaa !1118
  %3 = load ptr, ptr %2, align 8
  %4 = getelementptr inbounds nuw %"struct.std::_Rb_tree_node.350", ptr %3, i32 0, i32 1
  %5 = call noundef ptr @_ZN9__gnu_cxx16__aligned_membufISt4pairIKjN5Yosys5RTLIL5ConstEEE6_M_ptrEv(ptr noundef nonnull align 8 dereferenceable(48) %4) #3
  ret ptr %5
}

; Function Attrs: mustprogress nounwind uwtable
define linkonce_odr noundef ptr @_ZNKSt17_Rb_tree_iteratorISt4pairIKjN5Yosys5RTLIL5ConstEEEptEv(ptr noundef nonnull align 8 dereferenceable(8) %0) #8 comdat align 2 {
  %2 = alloca ptr, align 8
  store ptr %0, ptr %2, align 8, !tbaa !513
  %3 = load ptr, ptr %2, align 8
  %4 = getelementptr inbounds nuw %"struct.std::_Rb_tree_iterator.241", ptr %3, i32 0, i32 0
  %5 = load ptr, ptr %4, align 8, !tbaa !515
  %6 = call noundef ptr @_ZNSt13_Rb_tree_nodeISt4pairIKjN5Yosys5RTLIL5ConstEEE9_M_valptrEv(ptr noundef nonnull align 8 dereferenceable(80) %5)
  ret ptr %6
}

; Function Attrs: mustprogress nounwind uwtable
define linkonce_odr void @_ZNSt17_Rb_tree_iteratorISt4pairIKjN5Yosys5RTLIL5ConstEEEC2EPSt18_Rb_tree_node_base(ptr noundef nonnull align 8 dereferenceable(8) %0, ptr noundef %1) unnamed_addr #8 comdat align 2 {
  %3 = alloca ptr, align 8
  %4 = alloca ptr, align 8
  store ptr %0, ptr %3, align 8, !tbaa !513
  store ptr %1, ptr %4, align 8, !tbaa !210
  %5 = load ptr, ptr %3, align 8
  %6 = getelementptr inbounds nuw %"struct.std::_Rb_tree_iterator.241", ptr %5, i32 0, i32 0
  %7 = load ptr, ptr %4, align 8, !tbaa !210
  store ptr %7, ptr %6, align 8, !tbaa !515
  ret void
}

; Function Attrs: mustprogress nounwind uwtable
define linkonce_odr ptr @_ZNSt8_Rb_treeIjSt4pairIKjN5Yosys5RTLIL5ConstEESt10_Select1stIS5_ESt4lessIjESaIS5_EE3endEv(ptr noundef nonnull align 8 dereferenceable(48) %0) #8 comdat align 2 {
  %2 = alloca %"struct.std::_Rb_tree_iterator.241", align 8
  %3 = alloca ptr, align 8
  store ptr %0, ptr %3, align 8, !tbaa !1108
  %4 = load ptr, ptr %3, align 8
  %5 = getelementptr inbounds nuw %"class.std::_Rb_tree.233", ptr %4, i32 0, i32 0
  %6 = getelementptr inbounds i8, ptr %5, i64 8
  %7 = getelementptr inbounds nuw %"struct.std::_Rb_tree_header", ptr %6, i32 0, i32 0
  call void @_ZNSt17_Rb_tree_iteratorISt4pairIKjN5Yosys5RTLIL5ConstEEEC2EPSt18_Rb_tree_node_base(ptr noundef nonnull align 8 dereferenceable(8) %2, ptr noundef %7) #3
  %8 = getelementptr inbounds nuw %"struct.std::_Rb_tree_iterator.241", ptr %2, i32 0, i32 0
  %9 = load ptr, ptr %8, align 8
  ret ptr %9
}

; Function Attrs: mustprogress uwtable
define linkonce_odr noundef i32 @_ZNK5Yosys11MemContents11_range_sizeESt17_Rb_tree_iteratorISt4pairIKjNS_5RTLIL5ConstEEE(ptr noundef nonnull align 8 dereferenceable(96) %0, ptr %1) #4 comdat align 2 {
  %3 = alloca %"struct.std::_Rb_tree_iterator.241", align 8
  %4 = alloca ptr, align 8
  %5 = getelementptr inbounds nuw %"struct.std::_Rb_tree_iterator.241", ptr %3, i32 0, i32 0
  store ptr %1, ptr %5, align 8
  store ptr %0, ptr %4, align 8, !tbaa !484
  %6 = load ptr, ptr %4, align 8
  %7 = call noundef ptr @_ZNKSt17_Rb_tree_iteratorISt4pairIKjN5Yosys5RTLIL5ConstEEEptEv(ptr noundef nonnull align 8 dereferenceable(8) %3) #3
  %8 = getelementptr inbounds nuw %"struct.std::pair.239", ptr %7, i32 0, i32 1
  %9 = call noundef i32 @_ZNK5Yosys5RTLIL5Const4sizeEv(ptr noundef nonnull align 8 dereferenceable(40) %8)
  %10 = getelementptr inbounds nuw %"class.Yosys::MemContents", ptr %6, i32 0, i32 1
  %11 = load i32, ptr %10, align 4, !tbaa !486
  %12 = sdiv i32 %9, %11
  ret i32 %12
}

; Function Attrs: mustprogress nounwind uwtable
define linkonce_odr noundef i32 @_ZNK5Yosys11MemContents12_range_beginESt17_Rb_tree_iteratorISt4pairIKjNS_5RTLIL5ConstEEE(ptr noundef nonnull align 8 dereferenceable(96) %0, ptr %1) #8 comdat align 2 {
  %3 = alloca %"struct.std::_Rb_tree_iterator.241", align 8
  %4 = alloca ptr, align 8
  %5 = getelementptr inbounds nuw %"struct.std::_Rb_tree_iterator.241", ptr %3, i32 0, i32 0
  store ptr %1, ptr %5, align 8
  store ptr %0, ptr %4, align 8, !tbaa !484
  %6 = call noundef ptr @_ZNKSt17_Rb_tree_iteratorISt4pairIKjN5Yosys5RTLIL5ConstEEEptEv(ptr noundef nonnull align 8 dereferenceable(8) %3) #3
  %7 = getelementptr inbounds nuw %"struct.std::pair.239", ptr %6, i32 0, i32 0
  %8 = load i32, ptr %7, align 8, !tbaa !504
  ret i32 %8
}

; Function Attrs: mustprogress nounwind uwtable
define linkonce_odr ptr @_ZNSt8_Rb_treeIjSt4pairIKjN5Yosys5RTLIL5ConstEESt10_Select1stIS5_ESt4lessIjESaIS5_EE5beginEv(ptr noundef nonnull align 8 dereferenceable(48) %0) #8 comdat align 2 {
  %2 = alloca %"struct.std::_Rb_tree_iterator.241", align 8
  %3 = alloca ptr, align 8
  store ptr %0, ptr %3, align 8, !tbaa !1108
  %4 = load ptr, ptr %3, align 8
  %5 = getelementptr inbounds nuw %"class.std::_Rb_tree.233", ptr %4, i32 0, i32 0
  %6 = getelementptr inbounds i8, ptr %5, i64 8
  %7 = getelementptr inbounds nuw %"struct.std::_Rb_tree_header", ptr %6, i32 0, i32 0
  %8 = getelementptr inbounds nuw %"struct.std::_Rb_tree_node_base", ptr %7, i32 0, i32 2
  %9 = load ptr, ptr %8, align 8, !tbaa !744
  call void @_ZNSt17_Rb_tree_iteratorISt4pairIKjN5Yosys5RTLIL5ConstEEEC2EPSt18_Rb_tree_node_base(ptr noundef nonnull align 8 dereferenceable(8) %2, ptr noundef %9) #3
  %10 = getelementptr inbounds nuw %"struct.std::_Rb_tree_iterator.241", ptr %2, i32 0, i32 0
  %11 = load ptr, ptr %10, align 8
  ret ptr %11
}

; Function Attrs: mustprogress nounwind uwtable
define linkonce_odr noundef zeroext i1 @_ZNKSt8_Rb_treeIjSt4pairIKjN5Yosys5RTLIL5ConstEESt10_Select1stIS5_ESt4lessIjESaIS5_EE5emptyEv(ptr noundef nonnull align 8 dereferenceable(48) %0) #8 comdat align 2 {
  %2 = alloca ptr, align 8
  store ptr %0, ptr %2, align 8, !tbaa !1108
  %3 = load ptr, ptr %2, align 8
  %4 = getelementptr inbounds nuw %"class.std::_Rb_tree.233", ptr %3, i32 0, i32 0
  %5 = getelementptr inbounds i8, ptr %4, i64 8
  %6 = getelementptr inbounds nuw %"struct.std::_Rb_tree_header", ptr %5, i32 0, i32 1
  %7 = load i64, ptr %6, align 8, !tbaa !746
  %8 = icmp eq i64 %7, 0
  ret i1 %8
}

; Function Attrs: mustprogress nounwind uwtable
define linkonce_odr noundef zeroext i1 @_ZSteqRKSt17_Rb_tree_iteratorISt4pairIKjN5Yosys5RTLIL5ConstEEES8_(ptr noundef nonnull align 8 dereferenceable(8) %0, ptr noundef nonnull align 8 dereferenceable(8) %1) #8 comdat {
  %3 = alloca ptr, align 8
  %4 = alloca ptr, align 8
  store ptr %0, ptr %3, align 8, !tbaa !513
  store ptr %1, ptr %4, align 8, !tbaa !513
  %5 = load ptr, ptr %3, align 8, !tbaa !513
  %6 = getelementptr inbounds nuw %"struct.std::_Rb_tree_iterator.241", ptr %5, i32 0, i32 0
  %7 = load ptr, ptr %6, align 8, !tbaa !515
  %8 = load ptr, ptr %4, align 8, !tbaa !513
  %9 = getelementptr inbounds nuw %"struct.std::_Rb_tree_iterator.241", ptr %8, i32 0, i32 0
  %10 = load ptr, ptr %9, align 8, !tbaa !515
  %11 = icmp eq ptr %7, %10
  ret i1 %11
}

; Function Attrs: mustprogress nounwind uwtable
define linkonce_odr ptr @_ZNSt3mapIjN5Yosys5RTLIL5ConstESt4lessIjESaISt4pairIKjS2_EEE3endEv(ptr noundef nonnull align 8 dereferenceable(48) %0) #8 comdat align 2 {
  %2 = alloca %"struct.std::_Rb_tree_iterator.241", align 8
  %3 = alloca ptr, align 8
  store ptr %0, ptr %3, align 8, !tbaa !506
  %4 = load ptr, ptr %3, align 8
  %5 = getelementptr inbounds nuw %"class.std::map.232", ptr %4, i32 0, i32 0
  %6 = call ptr @_ZNSt8_Rb_treeIjSt4pairIKjN5Yosys5RTLIL5ConstEESt10_Select1stIS5_ESt4lessIjESaIS5_EE3endEv(ptr noundef nonnull align 8 dereferenceable(48) %5) #3
  %7 = getelementptr inbounds nuw %"struct.std::_Rb_tree_iterator.241", ptr %2, i32 0, i32 0
  store ptr %6, ptr %7, align 8
  %8 = getelementptr inbounds nuw %"struct.std::_Rb_tree_iterator.241", ptr %2, i32 0, i32 0
  %9 = load ptr, ptr %8, align 8
  ret ptr %9
}

; Function Attrs: mustprogress nounwind uwtable
define linkonce_odr noundef nonnull align 8 dereferenceable(8) ptr @_ZNSt17_Rb_tree_iteratorISt4pairIKjN5Yosys5RTLIL5ConstEEEppEv(ptr noundef nonnull align 8 dereferenceable(8) %0) #8 comdat align 2 {
  %2 = alloca ptr, align 8
  store ptr %0, ptr %2, align 8, !tbaa !513
  %3 = load ptr, ptr %2, align 8
  %4 = getelementptr inbounds nuw %"struct.std::_Rb_tree_iterator.241", ptr %3, i32 0, i32 0
  %5 = load ptr, ptr %4, align 8, !tbaa !515
  %6 = call noundef ptr @_ZSt18_Rb_tree_incrementPSt18_Rb_tree_node_base(ptr noundef %5) #26
  %7 = getelementptr inbounds nuw %"struct.std::_Rb_tree_iterator.241", ptr %3, i32 0, i32 0
  store ptr %6, ptr %7, align 8, !tbaa !515
  ret ptr %3
}

; Function Attrs: mustprogress uwtable
define linkonce_odr noundef i32 @_ZNK5Yosys11MemContents10_range_endESt17_Rb_tree_iteratorISt4pairIKjNS_5RTLIL5ConstEEE(ptr noundef nonnull align 8 dereferenceable(96) %0, ptr %1) #4 comdat align 2 {
  %3 = alloca %"struct.std::_Rb_tree_iterator.241", align 8
  %4 = alloca ptr, align 8
  %5 = alloca %"struct.std::_Rb_tree_iterator.241", align 8
  %6 = alloca %"struct.std::_Rb_tree_iterator.241", align 8
  %7 = getelementptr inbounds nuw %"struct.std::_Rb_tree_iterator.241", ptr %3, i32 0, i32 0
  store ptr %1, ptr %7, align 8
  store ptr %0, ptr %4, align 8, !tbaa !484
  %8 = load ptr, ptr %4, align 8
  call void @llvm.memcpy.p0.p0.i64(ptr align 8 %5, ptr align 8 %3, i64 8, i1 false), !tbaa.struct !209
  %9 = getelementptr inbounds nuw %"struct.std::_Rb_tree_iterator.241", ptr %5, i32 0, i32 0
  %10 = load ptr, ptr %9, align 8
  %11 = call noundef i32 @_ZNK5Yosys11MemContents12_range_beginESt17_Rb_tree_iteratorISt4pairIKjNS_5RTLIL5ConstEEE(ptr noundef nonnull align 8 dereferenceable(96) %8, ptr %10)
  call void @llvm.memcpy.p0.p0.i64(ptr align 8 %6, ptr align 8 %3, i64 8, i1 false), !tbaa.struct !209
  %12 = getelementptr inbounds nuw %"struct.std::_Rb_tree_iterator.241", ptr %6, i32 0, i32 0
  %13 = load ptr, ptr %12, align 8
  %14 = call noundef i32 @_ZNK5Yosys11MemContents11_range_sizeESt17_Rb_tree_iteratorISt4pairIKjNS_5RTLIL5ConstEEE(ptr noundef nonnull align 8 dereferenceable(96) %8, ptr %13)
  %15 = add i32 %11, %14
  ret i32 %15
}

; Function Attrs: mustprogress nounwind uwtable
define linkonce_odr ptr @_ZNSt3mapIjN5Yosys5RTLIL5ConstESt4lessIjESaISt4pairIKjS2_EEE5beginEv(ptr noundef nonnull align 8 dereferenceable(48) %0) #8 comdat align 2 {
  %2 = alloca %"struct.std::_Rb_tree_iterator.241", align 8
  %3 = alloca ptr, align 8
  store ptr %0, ptr %3, align 8, !tbaa !506
  %4 = load ptr, ptr %3, align 8
  %5 = getelementptr inbounds nuw %"class.std::map.232", ptr %4, i32 0, i32 0
  %6 = call ptr @_ZNSt8_Rb_treeIjSt4pairIKjN5Yosys5RTLIL5ConstEESt10_Select1stIS5_ESt4lessIjESaIS5_EE5beginEv(ptr noundef nonnull align 8 dereferenceable(48) %5) #3
  %7 = getelementptr inbounds nuw %"struct.std::_Rb_tree_iterator.241", ptr %2, i32 0, i32 0
  store ptr %6, ptr %7, align 8
  %8 = getelementptr inbounds nuw %"struct.std::_Rb_tree_iterator.241", ptr %2, i32 0, i32 0
  %9 = load ptr, ptr %8, align 8
  ret ptr %9
}

; Function Attrs: mustprogress nounwind uwtable
define linkonce_odr noundef zeroext i1 @_ZNKSt3mapIjN5Yosys5RTLIL5ConstESt4lessIjESaISt4pairIKjS2_EEE5emptyEv(ptr noundef nonnull align 8 dereferenceable(48) %0) #8 comdat align 2 {
  %2 = alloca ptr, align 8
  store ptr %0, ptr %2, align 8, !tbaa !506
  %3 = load ptr, ptr %2, align 8
  %4 = getelementptr inbounds nuw %"class.std::map.232", ptr %3, i32 0, i32 0
  %5 = call noundef zeroext i1 @_ZNKSt8_Rb_treeIjSt4pairIKjN5Yosys5RTLIL5ConstEESt10_Select1stIS5_ESt4lessIjESaIS5_EE5emptyEv(ptr noundef nonnull align 8 dereferenceable(48) %4) #3
  ret i1 %5
}

; Function Attrs: mustprogress uwtable
define void @_ZN5Yosys11MemContents5checkEv(ptr noundef nonnull align 8 dereferenceable(96) %0) #4 align 2 {
  %2 = alloca ptr, align 8
  %3 = alloca %"struct.std::_Rb_tree_iterator.241", align 8
  %4 = alloca i32, align 4
  %5 = alloca %"struct.std::_Rb_tree_iterator.241", align 8
  %6 = alloca %"struct.std::_Rb_tree_iterator.241", align 8
  %7 = alloca i32, align 4
  store ptr %0, ptr %2, align 8, !tbaa !484
  %8 = load ptr, ptr %2, align 8
  br label %9

9:                                                ; preds = %1
  br label %10

10:                                               ; preds = %9
  br label %11

11:                                               ; preds = %10
  br label %12

12:                                               ; preds = %11
  br label %13

13:                                               ; preds = %12
  br label %14

14:                                               ; preds = %13
  %15 = getelementptr inbounds nuw %"class.Yosys::MemContents", ptr %8, i32 0, i32 3
  %16 = call noundef zeroext i1 @_ZNKSt3mapIjN5Yosys5RTLIL5ConstESt4lessIjESaISt4pairIKjS2_EEE5emptyEv(ptr noundef nonnull align 8 dereferenceable(48) %15) #3
  br i1 %16, label %17, label %18

17:                                               ; preds = %14
  br label %52

18:                                               ; preds = %14
  call void @llvm.lifetime.start.p0(i64 8, ptr %3) #3
  %19 = getelementptr inbounds nuw %"class.Yosys::MemContents", ptr %8, i32 0, i32 3
  %20 = call ptr @_ZNSt3mapIjN5Yosys5RTLIL5ConstESt4lessIjESaISt4pairIKjS2_EEE5beginEv(ptr noundef nonnull align 8 dereferenceable(48) %19) #3
  %21 = getelementptr inbounds nuw %"struct.std::_Rb_tree_iterator.241", ptr %3, i32 0, i32 0
  store ptr %20, ptr %21, align 8
  br label %22

22:                                               ; preds = %50, %18
  br label %23

23:                                               ; preds = %22
  br label %24

24:                                               ; preds = %23
  br label %25

25:                                               ; preds = %24
  br label %26

26:                                               ; preds = %25
  br label %27

27:                                               ; preds = %26
  br label %28

28:                                               ; preds = %27
  call void @llvm.lifetime.start.p0(i64 4, ptr %4) #3
  call void @llvm.memcpy.p0.p0.i64(ptr align 8 %5, ptr align 8 %3, i64 8, i1 false), !tbaa.struct !209
  %29 = getelementptr inbounds nuw %"struct.std::_Rb_tree_iterator.241", ptr %5, i32 0, i32 0
  %30 = load ptr, ptr %29, align 8
  %31 = call noundef i32 @_ZNK5Yosys11MemContents10_range_endESt17_Rb_tree_iteratorISt4pairIKjNS_5RTLIL5ConstEEE(ptr noundef nonnull align 8 dereferenceable(96) %8, ptr %30)
  store i32 %31, ptr %4, align 4, !tbaa !89
  br label %32

32:                                               ; preds = %28
  br label %33

33:                                               ; preds = %32
  br label %34

34:                                               ; preds = %33
  br label %35

35:                                               ; preds = %34
  br label %36

36:                                               ; preds = %35
  br label %37

37:                                               ; preds = %36
  %38 = call noundef nonnull align 8 dereferenceable(8) ptr @_ZNSt17_Rb_tree_iteratorISt4pairIKjN5Yosys5RTLIL5ConstEEEppEv(ptr noundef nonnull align 8 dereferenceable(8) %3) #3
  call void @llvm.lifetime.start.p0(i64 8, ptr %6) #3
  %39 = getelementptr inbounds nuw %"class.Yosys::MemContents", ptr %8, i32 0, i32 3
  %40 = call ptr @_ZNSt3mapIjN5Yosys5RTLIL5ConstESt4lessIjESaISt4pairIKjS2_EEE3endEv(ptr noundef nonnull align 8 dereferenceable(48) %39) #3
  %41 = getelementptr inbounds nuw %"struct.std::_Rb_tree_iterator.241", ptr %6, i32 0, i32 0
  store ptr %40, ptr %41, align 8
  %42 = call noundef zeroext i1 @_ZSteqRKSt17_Rb_tree_iteratorISt4pairIKjN5Yosys5RTLIL5ConstEEES8_(ptr noundef nonnull align 8 dereferenceable(8) %38, ptr noundef nonnull align 8 dereferenceable(8) %6) #3
  call void @llvm.lifetime.end.p0(i64 8, ptr %6) #3
  br i1 %42, label %43, label %44

43:                                               ; preds = %37
  store i32 8, ptr %7, align 4
  br label %48

44:                                               ; preds = %37
  br label %45

45:                                               ; preds = %44
  br label %46

46:                                               ; preds = %45
  br label %47

47:                                               ; preds = %46
  store i32 0, ptr %7, align 4
  br label %48

48:                                               ; preds = %47, %43
  call void @llvm.lifetime.end.p0(i64 4, ptr %4) #3
  %49 = load i32, ptr %7, align 4
  switch i32 %49, label %53 [
    i32 0, label %50
    i32 8, label %51
  ]

50:                                               ; preds = %48
  br label %22, !llvm.loop !512

51:                                               ; preds = %48
  call void @llvm.lifetime.end.p0(i64 8, ptr %3) #3
  br label %52

52:                                               ; preds = %51, %17
  ret void

53:                                               ; preds = %48
  unreachable
}