; Function Attrs: mustprogress uwtable
define void @_ZN5Yosys11MemContents5checkEv(ptr noundef nonnull readonly align 8 captures(address) dereferenceable(96) %0) local_unnamed_addr #3 align 2 {
  %2 = getelementptr inbounds nuw i8, ptr %0, i64 88
  %3 = load i64, ptr %2, align 8, !tbaa !267
  %4 = icmp eq i64 %3, 0
  br i1 %4, label %.loopexit, label %5

5:                                                ; preds = %1
  %6 = getelementptr inbounds nuw i8, ptr %0, i64 72
  %7 = load ptr, ptr %6, align 8, !tbaa !265
  %8 = getelementptr inbounds nuw i8, ptr %0, i64 56
  br label %9

9:                                                ; preds = %9, %5
  %.sroa.01.0 = phi ptr [ %7, %5 ], [ %12, %9 ]
  %10 = getelementptr inbounds nuw i8, ptr %.sroa.01.0, i64 40
  %11 = tail call noundef i32 @_ZNK5Yosys5RTLIL5Const4sizeEv(ptr noundef nonnull align 8 dereferenceable(40) %10)
  %12 = tail call noundef ptr @_ZSt18_Rb_tree_incrementPSt18_Rb_tree_node_base(ptr noundef %.sroa.01.0) #37
  %13 = icmp eq ptr %12, %8
  br i1 %13, label %.loopexit, label %9

.loopexit:                                        ; preds = %9, %1
  ret void
}